target datalayout = "e-m:e-p270:32:32-p271:32:32-p272:64:64-i64:64-i128:128-f80:128-n8:16:32:64-S128"
target triple = "x86_64-pc-linux-gnu"

%struct.Wlc_Ntk_t_ = type { ptr, ptr, %struct.Vec_Int_t_, %struct.Vec_Int_t_, %struct.Vec_Int_t_, %struct.Vec_Int_t_, %struct.Vec_Int_t_, %struct.Vec_Int_t_, ptr, ptr, ptr, [60 x i32], [60 x i32], i32, i32, i32, i32, i32, ptr, i32, i32, ptr, ptr, ptr, ptr, ptr, %struct.Vec_Int_t_, %struct.Vec_Int_t_, i32, %struct.Vec_Int_t_, %struct.Vec_Int_t_, %struct.Vec_Int_t_, %struct.Vec_Int_t_, %struct.Vec_Int_t_, %struct.Vec_Int_t_ }
%struct.Vec_Int_t_ = type { i32, i32, ptr }
%struct.Wlc_Obj_t_ = type { i16, i32, i32, i32, %union.anon }
%union.anon = type { [1 x ptr] }

; Function Attrs: nounwind uwtable
define internal i32 @Wlc_ObjRange(ptr noundef %0) #0 {
  %2 = alloca ptr, align 8
  store ptr %0, ptr %2, align 8
  %3 = load ptr, ptr %2, align 8
  %4 = getelementptr inbounds %struct.Wlc_Obj_t_, ptr %3, i32 0, i32 2
  %5 = load i32, ptr %4, align 8
  %6 = load ptr, ptr %2, align 8
  %7 = getelementptr inbounds %struct.Wlc_Obj_t_, ptr %6, i32 0, i32 3
  %8 = load i32, ptr %7, align 4
  %9 = icmp sge i32 %5, %8
  br i1 %9, label %10, label %18

10:                                               ; preds = %1
  %11 = load ptr, ptr %2, align 8
  %12 = getelementptr inbounds %struct.Wlc_Obj_t_, ptr %11, i32 0, i32 2
  %13 = load i32, ptr %12, align 8
  %14 = load ptr, ptr %2, align 8
  %15 = getelementptr inbounds %struct.Wlc_Obj_t_, ptr %14, i32 0, i32 3
  %16 = load i32, ptr %15, align 4
  %17 = sub nsw i32 %13, %16
  br label %26

18:                                               ; preds = %1
  %19 = load ptr, ptr %2, align 8
  %20 = getelementptr inbounds %struct.Wlc_Obj_t_, ptr %19, i32 0, i32 3
  %21 = load i32, ptr %20, align 4
  %22 = load ptr, ptr %2, align 8
  %23 = getelementptr inbounds %struct.Wlc_Obj_t_, ptr %22, i32 0, i32 2
  %24 = load i32, ptr %23, align 8
  %25 = sub nsw i32 %21, %24
  br label %26

26:                                               ; preds = %18, %10
  %27 = phi i32 [ %17, %10 ], [ %25, %18 ]
  %28 = add nsw i32 1, %27
  ret i32 %28
}

; Function Attrs: nounwind uwtable
define internal ptr @Wlc_NtkObj(ptr noundef %0, i32 noundef %1) #0 {
  %3 = alloca ptr, align 8
  %4 = alloca i32, align 4
  store ptr %0, ptr %3, align 8
  store i32 %1, ptr %4, align 4
  %5 = load ptr, ptr %3, align 8
  %6 = getelementptr inbounds %struct.Wlc_Ntk_t_, ptr %5, i32 0, i32 18
  %7 = load ptr, ptr %6, align 8
  %8 = load i32, ptr %4, align 4
  %9 = sext i32 %8 to i64
  %10 = getelementptr inbounds %struct.Wlc_Obj_t_, ptr %7, i64 %9
  ret ptr %10
}

; Function Attrs: nounwind uwtable
define internal i32 @Vec_IntEntry(ptr noundef %0, i32 noundef %1) #0 {
  %3 = alloca ptr, align 8
  %4 = alloca i32, align 4
  store ptr %0, ptr %3, align 8
  store i32 %1, ptr %4, align 4
  %5 = load ptr, ptr %3, align 8
  %6 = getelementptr inbounds %struct.Vec_Int_t_, ptr %5, i32 0, i32 2
  %7 = load ptr, ptr %6, align 8
  %8 = load i32, ptr %4, align 4
  %9 = sext i32 %8 to i64
  %10 = getelementptr inbounds i32, ptr %7, i64 %9
  %11 = load i32, ptr %10, align 4
  ret i32 %11
}

; Function Attrs: nounwind uwtable
define internal i32 @Vec_IntSize(ptr noundef %0) #0 {
  %2 = alloca ptr, align 8
  store ptr %0, ptr %2, align 8
  %3 = load ptr, ptr %2, align 8
  %4 = getelementptr inbounds %struct.Vec_Int_t_, ptr %3, i32 0, i32 1
  %5 = load i32, ptr %4, align 4
  ret i32 %5
}

; Function Attrs: nounwind uwtable
define i32 @Wlc_NtkCountObjBits(ptr noundef %0, ptr noundef %1) #0 {
  %3 = alloca ptr, align 8
  %4 = alloca ptr, align 8
  %5 = alloca ptr, align 8
  %6 = alloca i32, align 4
  %7 = alloca i32, align 4
  store ptr %0, ptr %3, align 8
  store ptr %1, ptr %4, align 8
  store i32 0, ptr %7, align 4
  store i32 0, ptr %6, align 4
  br label %8

8:                                                ; preds = %26, %2
  %9 = load i32, ptr %6, align 4
  %10 = load ptr, ptr %4, align 8
  %11 = call i32 @Vec_IntSize(ptr noundef %10)
  %12 = icmp slt i32 %9, %11
  br i1 %12, label %13, label %19

13:                                               ; preds = %8
  %14 = load ptr, ptr %3, align 8
  %15 = load ptr, ptr %4, align 8
  %16 = load i32, ptr %6, align 4
  %17 = call i32 @Vec_IntEntry(ptr noundef %15, i32 noundef %16)
  %18 = call ptr @Wlc_NtkObj(ptr noundef %14, i32 noundef %17)
  store ptr %18, ptr %5, align 8
  br label %19

19:                                               ; preds = %13, %8
  %20 = phi i1 [ false, %8 ], [ true, %13 ]
  br i1 %20, label %21, label %29

21:                                               ; preds = %19
  %22 = load ptr, ptr %5, align 8
  %23 = call i32 @Wlc_ObjRange(ptr noundef %22)
  %24 = load i32, ptr %7, align 4
  %25 = add nsw i32 %24, %23
  store i32 %25, ptr %7, align 4
  br label %26

26:                                               ; preds = %21
  %27 = load i32, ptr %6, align 4
  %28 = add nsw i32 %27, 1
  store i32 %28, ptr %6, align 4
  br label %8, !llvm.loop !89

29:                                               ; preds = %19
  %30 = load i32, ptr %7, align 4
  ret i32 %30
}