; Function Attrs: nofree norecurse nosync nounwind memory(read, inaccessiblemem: none) uwtable
define range(i32 0, -2147483648) i32 @Wlc_NtkCountObjBits(ptr noundef readonly captures(none) %0, ptr noundef readonly captures(none) %1) local_unnamed_addr #19 {
  %3 = getelementptr i8, ptr %1, i64 4
  %.val = load i32, ptr %3, align 4
  %4 = icmp sgt i32 %.val, 0
  br i1 %4, label %.lr.ph, label %.critedge

.lr.ph:                                           ; preds = %2
  %5 = getelementptr i8, ptr %1, i64 8
  %.val9 = load ptr, ptr %5, align 8
  %6 = getelementptr i8, ptr %0, i64 640
  %.val10 = load ptr, ptr %6, align 8
  %wide.trip.count = zext nneg i32 %.val to i64
  br label %7

7:                                                ; preds = %.lr.ph, %7
  %indvars.iv = phi i64 [ 0, %.lr.ph ], [ %indvars.iv.next, %7 ]
  %.014 = phi i32 [ 0, %.lr.ph ], [ %17, %7 ]
  %8 = getelementptr inbounds nuw i32, ptr %.val9, i64 %indvars.iv
  %9 = load i32, ptr %8, align 4
  %10 = sext i32 %9 to i64
  %11 = getelementptr inbounds %struct.Wlc_Obj_t_, ptr %.val10, i64 %10
  %12 = getelementptr i8, ptr %11, i64 8
  %.val11 = load i32, ptr %12, align 8
  %13 = getelementptr i8, ptr %11, i64 12
  %.val12 = load i32, ptr %13, align 4
  %14 = sub nsw i32 %.val11, %.val12
  %15 = tail call i32 @llvm.abs.i32(i32 %14, i1 true)
  %16 = add nuw nsw i32 %.014, 1
  %17 = add nuw nsw i32 %16, %15
  %indvars.iv.next = add nuw nsw i64 %indvars.iv, 1
  %exitcond.not = icmp eq i64 %indvars.iv.next, %wide.trip.count
  br i1 %exitcond.not, label %.critedge, label %7, !llvm.loop !87

.critedge:                                        ; preds = %7, %2
  %.0.lcssa = phi i32 [ 0, %2 ], [ %17, %7 ]
  ret i32 %.0.lcssa
}